target datalayout = "e-m:e-p270:32:32-p271:32:32-p272:64:64-i64:64-i128:128-f80:128-n8:16:32:64-S128"
target triple = "x86_64-pc-linux-gnu"

@g_freshclamDat = global ptr null, align 8
@g_lastRay = global [21 x i8] zeroinitializer, align 16
@.str.2 = private unnamed_addr constant [14 x i8] c"freshclam.dat\00", align 1
@.str.7 = private unnamed_addr constant [14 x i8] c"FreshClamData\00", align 1
@.str.22 = private unnamed_addr constant [66 x i8] c"Attempted to save freshclam.dat before initializing data struct!\0A\00", align 1
@.str.23 = private unnamed_addr constant [34 x i8] c"Can't create freshclam.dat in %s\0A\00", align 1
@.str.24 = private unnamed_addr constant [53 x i8] c"Can't create freshclam.dat in the current directory\0A\00", align 1
@.str.25 = private unnamed_addr constant [68 x i8] c"Hint: The database directory must be writable for UID %d or GID %d\0A\00", align 1
@.str.26 = private unnamed_addr constant [30 x i8] c"Can't write to freshclam.dat\0A\00", align 1
@.str.27 = private unnamed_addr constant [21 x i8] c"Saved freshclam.dat\0A\00", align 1

; Function Attrs: nounwind uwtable
define i32 @save_freshclam_dat() #0 {
  %1 = alloca i32, align 4
  %2 = alloca i32, align 4
  %3 = alloca i32, align 4
  %4 = alloca [4096 x i8], align 16
  %5 = alloca i32, align 4
  call void @llvm.lifetime.start.p0(i64 4, ptr %2) #13
  store i32 2, ptr %2, align 4, !tbaa !3
  call void @llvm.lifetime.start.p0(i64 4, ptr %3) #13
  store i32 -1, ptr %3, align 4, !tbaa !3
  %6 = load ptr, ptr @g_freshclamDat, align 8, !tbaa !9
  %7 = icmp eq ptr null, %6
  br i1 %7, label %8, label %10

8:                                                ; preds = %0
  %9 = call i32 (i32, ptr, ...) @logg(i32 noundef 5, ptr noundef @.str.22)
  br label %48

10:                                               ; preds = %0
  %11 = call i32 (ptr, i32, ...) @open(ptr noundef @.str.2, i32 noundef 577, i32 noundef 420)
  store i32 %11, ptr %3, align 4, !tbaa !3
  %12 = icmp eq i32 -1, %11
  br i1 %12, label %13, label %27

13:                                               ; preds = %10
  call void @llvm.lifetime.start.p0(i64 4096, ptr %4) #13
  %14 = getelementptr inbounds [4096 x i8], ptr %4, i64 0, i64 0
  %15 = call ptr @getcwd(ptr noundef %14, i64 noundef 4096) #13
  %16 = icmp ne ptr %15, null
  br i1 %16, label %17, label %20

17:                                               ; preds = %13
  %18 = getelementptr inbounds [4096 x i8], ptr %4, i64 0, i64 0
  %19 = call i32 (i32, ptr, ...) @logg(i32 noundef 5, ptr noundef @.str.23, ptr noundef %18)
  br label %22

20:                                               ; preds = %13
  %21 = call i32 (i32, ptr, ...) @logg(i32 noundef 5, ptr noundef @.str.24)
  br label %22

22:                                               ; preds = %20, %17
  %23 = call i32 @getuid() #13
  %24 = call i32 @getgid() #13
  %25 = call i32 (i32, ptr, ...) @logg(i32 noundef 0, ptr noundef @.str.25, i32 noundef %23, i32 noundef %24)
  store i32 10, ptr %2, align 4, !tbaa !3
  store i32 2, ptr %5, align 4
  call void @llvm.lifetime.end.p0(i64 4096, ptr %4) #13
  %26 = load i32, ptr %5, align 4
  switch i32 %26, label %56 [
    i32 2, label %48
  ]

27:                                               ; preds = %10
  %28 = load i32, ptr %3, align 4, !tbaa !3
  %29 = call i64 @write(i32 noundef %28, ptr noundef @.str.7, i64 noundef 13)
  %30 = icmp eq i64 -1, %29
  br i1 %30, label %31, label %33

31:                                               ; preds = %27
  %32 = call i32 (i32, ptr, ...) @logg(i32 noundef 5, ptr noundef @.str.26)
  br label %33

33:                                               ; preds = %31, %27
  %34 = load i32, ptr %3, align 4, !tbaa !3
  %35 = load ptr, ptr @g_freshclamDat, align 8, !tbaa !9
  %36 = call i64 @write(i32 noundef %34, ptr noundef %35, i64 noundef 56)
  %37 = icmp eq i64 -1, %36
  br i1 %37, label %38, label %40

38:                                               ; preds = %33
  %39 = call i32 (i32, ptr, ...) @logg(i32 noundef 5, ptr noundef @.str.26)
  br label %40

40:                                               ; preds = %38, %33
  %41 = load i32, ptr %3, align 4, !tbaa !3
  %42 = call i64 @write(i32 noundef %41, ptr noundef @g_lastRay, i64 noundef 21)
  %43 = icmp eq i64 -1, %42
  br i1 %43, label %44, label %46

44:                                               ; preds = %40
  %45 = call i32 (i32, ptr, ...) @logg(i32 noundef 5, ptr noundef @.str.26)
  br label %46

46:                                               ; preds = %44, %40
  %47 = call i32 (i32, ptr, ...) @logg(i32 noundef 2, ptr noundef @.str.27)
  store i32 0, ptr %2, align 4, !tbaa !3
  br label %48

48:                                               ; preds = %46, %22, %8
  %49 = load i32, ptr %3, align 4, !tbaa !3
  %50 = icmp ne i32 -1, %49
  br i1 %50, label %51, label %54

51:                                               ; preds = %48
  %52 = load i32, ptr %3, align 4, !tbaa !3
  %53 = call i32 @close(i32 noundef %52)
  br label %54

54:                                               ; preds = %51, %48
  %55 = load i32, ptr %2, align 4, !tbaa !3
  store i32 %55, ptr %1, align 4
  store i32 1, ptr %5, align 4
  br label %56

56:                                               ; preds = %54, %22
  call void @llvm.lifetime.end.p0(i64 4, ptr %3) #13
  call void @llvm.lifetime.end.p0(i64 4, ptr %2) #13
  %57 = load i32, ptr %1, align 4
  ret i32 %57
}