; Function Attrs: nounwind uwtable
define range(i32 0, 11) i32 @save_freshclam_dat() local_unnamed_addr #0 {
  %1 = alloca [4096 x i8], align 16
  %2 = load ptr, ptr @g_freshclamDat, align 8, !tbaa !10
  %3 = icmp eq ptr %2, null
  br i1 %3, label %4, label %6

4:                                                ; preds = %0
  %5 = tail call i32 (i32, ptr, ...) @logg(i32 noundef 5, ptr noundef nonnull @.str.22) #24
  br label %.thread

6:                                                ; preds = %0
  %7 = tail call i32 (ptr, i32, ...) @open(ptr noundef nonnull @.str.2, i32 noundef 577, i32 noundef 420) #24
  %8 = icmp eq i32 %7, -1
  br i1 %8, label %9, label %19

9:                                                ; preds = %6
  call void @llvm.lifetime.start.p0(i64 4096, ptr nonnull %1) #24
  %10 = call ptr @getcwd(ptr noundef nonnull %1, i64 noundef 4096) #24
  %.not = icmp eq ptr %10, null
  br i1 %.not, label %13, label %11

11:                                               ; preds = %9
  %12 = call i32 (i32, ptr, ...) @logg(i32 noundef 5, ptr noundef nonnull @.str.23, ptr noundef nonnull %1) #24
  br label %15

13:                                               ; preds = %9
  %14 = call i32 (i32, ptr, ...) @logg(i32 noundef 5, ptr noundef nonnull @.str.24) #24
  br label %15

15:                                               ; preds = %13, %11
  %16 = call i32 @getuid() #24
  %17 = call i32 @getgid() #24
  %18 = call i32 (i32, ptr, ...) @logg(i32 noundef 0, ptr noundef nonnull @.str.25, i32 noundef %16, i32 noundef %17) #24
  call void @llvm.lifetime.end.p0(i64 4096, ptr nonnull %1) #24
  br label %.thread

19:                                               ; preds = %6
  %20 = tail call i64 @write(i32 noundef %7, ptr noundef nonnull @.str.7, i64 noundef 13) #24
  %21 = icmp eq i64 %20, -1
  br i1 %21, label %22, label %24

22:                                               ; preds = %19
  %23 = tail call i32 (i32, ptr, ...) @logg(i32 noundef 5, ptr noundef nonnull @.str.26) #24
  br label %24

24:                                               ; preds = %22, %19
  %25 = load ptr, ptr @g_freshclamDat, align 8, !tbaa !10
  %26 = tail call i64 @write(i32 noundef %7, ptr noundef %25, i64 noundef 56) #24
  %27 = icmp eq i64 %26, -1
  br i1 %27, label %28, label %30

28:                                               ; preds = %24
  %29 = tail call i32 (i32, ptr, ...) @logg(i32 noundef 5, ptr noundef nonnull @.str.26) #24
  br label %30

30:                                               ; preds = %28, %24
  %31 = tail call i64 @write(i32 noundef %7, ptr noundef nonnull @g_lastRay, i64 noundef 21) #24
  %32 = icmp eq i64 %31, -1
  br i1 %32, label %33, label %35

33:                                               ; preds = %30
  %34 = tail call i32 (i32, ptr, ...) @logg(i32 noundef 5, ptr noundef nonnull @.str.26) #24
  br label %35

35:                                               ; preds = %33, %30
  %36 = tail call i32 (i32, ptr, ...) @logg(i32 noundef 2, ptr noundef nonnull @.str.27) #24
  %37 = tail call i32 @close(i32 noundef %7) #24
  br label %.thread

.thread:                                          ; preds = %15, %4, %35
  %.0815 = phi i32 [ 0, %35 ], [ 10, %15 ], [ 2, %4 ]
  ret i32 %.0815
}